target datalayout = "e-m:e-p270:32:32-p271:32:32-p272:64:64-i64:64-i128:128-f80:128-n8:16:32:64-S128"
target triple = "x86_64-pc-linux-gnu"

%struct.IpvideoContext = type { ptr, %struct.HpelDSPContext, ptr, ptr, ptr, ptr, ptr, i32, ptr, i32, i32, %struct.GetByteContext, %struct.GetByteContext, ptr, i32, i32, i32, [256 x i32] }
%struct.HpelDSPContext = type { [4 x [4 x ptr]], [4 x [4 x ptr]], [4 x [4 x ptr]], [4 x ptr] }
%struct.GetByteContext = type { ptr, ptr, ptr }

; Function Attrs: alwaysinline nounwind uwtable
define internal i32 @bytestream_get_byte(ptr noundef %0) #4 {
  %2 = alloca ptr, align 8
  store ptr %0, ptr %2, align 8, !tbaa !94
  %3 = load ptr, ptr %2, align 8, !tbaa !94
  %4 = load ptr, ptr %3, align 8, !tbaa !59
  %5 = getelementptr inbounds i8, ptr %4, i64 1
  store ptr %5, ptr %3, align 8, !tbaa !59
  %6 = load ptr, ptr %2, align 8, !tbaa !94
  %7 = load ptr, ptr %6, align 8, !tbaa !59
  %8 = getelementptr inbounds i8, ptr %7, i64 -1
  %9 = getelementptr inbounds i8, ptr %8, i64 0
  %10 = load i8, ptr %9, align 1, !tbaa !62
  %11 = zext i8 %10 to i32
  ret i32 %11
}

; Function Attrs: alwaysinline nounwind uwtable
define internal i32 @bytestream2_get_byteu(ptr noundef %0) #4 {
  %2 = alloca ptr, align 8
  store ptr %0, ptr %2, align 8, !tbaa !67
  %3 = load ptr, ptr %2, align 8, !tbaa !67
  %4 = getelementptr inbounds nuw %struct.GetByteContext, ptr %3, i32 0, i32 0
  %5 = call i32 @bytestream_get_byte(ptr noundef %4)
  ret i32 %5
}

; Function Attrs: alwaysinline nounwind uwtable
define internal i32 @bytestream2_get_byte(ptr noundef %0) #4 {
  %2 = alloca i32, align 4
  %3 = alloca ptr, align 8
  store ptr %0, ptr %3, align 8, !tbaa !67
  %4 = load ptr, ptr %3, align 8, !tbaa !67
  %5 = getelementptr inbounds nuw %struct.GetByteContext, ptr %4, i32 0, i32 1
  %6 = load ptr, ptr %5, align 8, !tbaa !71
  %7 = load ptr, ptr %3, align 8, !tbaa !67
  %8 = getelementptr inbounds nuw %struct.GetByteContext, ptr %7, i32 0, i32 0
  %9 = load ptr, ptr %8, align 8, !tbaa !69
  %10 = ptrtoint ptr %6 to i64
  %11 = ptrtoint ptr %9 to i64
  %12 = sub i64 %10, %11
  %13 = icmp slt i64 %12, 1
  br i1 %13, label %14, label %20

14:                                               ; preds = %1
  %15 = load ptr, ptr %3, align 8, !tbaa !67
  %16 = getelementptr inbounds nuw %struct.GetByteContext, ptr %15, i32 0, i32 1
  %17 = load ptr, ptr %16, align 8, !tbaa !71
  %18 = load ptr, ptr %3, align 8, !tbaa !67
  %19 = getelementptr inbounds nuw %struct.GetByteContext, ptr %18, i32 0, i32 0
  store ptr %17, ptr %19, align 8, !tbaa !69
  store i32 0, ptr %2, align 4
  br label %23

20:                                               ; preds = %1
  %21 = load ptr, ptr %3, align 8, !tbaa !67
  %22 = call i32 @bytestream2_get_byteu(ptr noundef %21)
  store i32 %22, ptr %2, align 4
  br label %23

23:                                               ; preds = %20, %14
  %24 = load i32, ptr %2, align 4
  ret i32 %24
}

; Function Attrs: nounwind uwtable
define internal i32 @ipvideo_decode_block_opcode_0xC(ptr noundef %0, ptr noundef %1) #1 {
  %3 = alloca ptr, align 8
  %4 = alloca ptr, align 8
  %5 = alloca i32, align 4
  %6 = alloca i32, align 4
  store ptr %0, ptr %3, align 8, !tbaa !29
  store ptr %1, ptr %4, align 8, !tbaa !53
  call void @llvm.lifetime.start.p0(i64 4, ptr %5) #11
  call void @llvm.lifetime.start.p0(i64 4, ptr %6) #11
  store i32 0, ptr %6, align 4, !tbaa !61
  br label %7

7:                                                ; preds = %66, %2
  %8 = load i32, ptr %6, align 4, !tbaa !61
  %9 = icmp slt i32 %8, 8
  br i1 %9, label %10, label %69

10:                                               ; preds = %7
  store i32 0, ptr %5, align 4, !tbaa !61
  br label %11

11:                                               ; preds = %53, %10
  %12 = load i32, ptr %5, align 4, !tbaa !61
  %13 = icmp slt i32 %12, 8
  br i1 %13, label %14, label %56

14:                                               ; preds = %11
  %15 = load ptr, ptr %3, align 8, !tbaa !29
  %16 = getelementptr inbounds nuw %struct.IpvideoContext, ptr %15, i32 0, i32 11
  %17 = call i32 @bytestream2_get_byte(ptr noundef %16)
  %18 = trunc i32 %17 to i8
  %19 = load ptr, ptr %3, align 8, !tbaa !29
  %20 = getelementptr inbounds nuw %struct.IpvideoContext, ptr %19, i32 0, i32 13
  %21 = load ptr, ptr %20, align 8, !tbaa !77
  %22 = load i32, ptr %5, align 4, !tbaa !61
  %23 = add nsw i32 %22, 1
  %24 = load ptr, ptr %3, align 8, !tbaa !29
  %25 = getelementptr inbounds nuw %struct.IpvideoContext, ptr %24, i32 0, i32 15
  %26 = load i32, ptr %25, align 4, !tbaa !72
  %27 = add nsw i32 %23, %26
  %28 = sext i32 %27 to i64
  %29 = getelementptr inbounds i8, ptr %21, i64 %28
  store i8 %18, ptr %29, align 1, !tbaa !62
  %30 = load ptr, ptr %3, align 8, !tbaa !29
  %31 = getelementptr inbounds nuw %struct.IpvideoContext, ptr %30, i32 0, i32 13
  %32 = load ptr, ptr %31, align 8, !tbaa !77
  %33 = load i32, ptr %5, align 4, !tbaa !61
  %34 = load ptr, ptr %3, align 8, !tbaa !29
  %35 = getelementptr inbounds nuw %struct.IpvideoContext, ptr %34, i32 0, i32 15
  %36 = load i32, ptr %35, align 4, !tbaa !72
  %37 = add nsw i32 %33, %36
  %38 = sext i32 %37 to i64
  %39 = getelementptr inbounds i8, ptr %32, i64 %38
  store i8 %18, ptr %39, align 1, !tbaa !62
  %40 = load ptr, ptr %3, align 8, !tbaa !29
  %41 = getelementptr inbounds nuw %struct.IpvideoContext, ptr %40, i32 0, i32 13
  %42 = load ptr, ptr %41, align 8, !tbaa !77
  %43 = load i32, ptr %5, align 4, !tbaa !61
  %44 = add nsw i32 %43, 1
  %45 = sext i32 %44 to i64
  %46 = getelementptr inbounds i8, ptr %42, i64 %45
  store i8 %18, ptr %46, align 1, !tbaa !62
  %47 = load ptr, ptr %3, align 8, !tbaa !29
  %48 = getelementptr inbounds nuw %struct.IpvideoContext, ptr %47, i32 0, i32 13
  %49 = load ptr, ptr %48, align 8, !tbaa !77
  %50 = load i32, ptr %5, align 4, !tbaa !61
  %51 = sext i32 %50 to i64
  %52 = getelementptr inbounds i8, ptr %49, i64 %51
  store i8 %18, ptr %52, align 1, !tbaa !62
  br label %53

53:                                               ; preds = %14
  %54 = load i32, ptr %5, align 4, !tbaa !61
  %55 = add nsw i32 %54, 2
  store i32 %55, ptr %5, align 4, !tbaa !61
  br label %11, !llvm.loop !129

56:                                               ; preds = %11
  %57 = load ptr, ptr %3, align 8, !tbaa !29
  %58 = getelementptr inbounds nuw %struct.IpvideoContext, ptr %57, i32 0, i32 15
  %59 = load i32, ptr %58, align 4, !tbaa !72
  %60 = mul nsw i32 %59, 2
  %61 = load ptr, ptr %3, align 8, !tbaa !29
  %62 = getelementptr inbounds nuw %struct.IpvideoContext, ptr %61, i32 0, i32 13
  %63 = load ptr, ptr %62, align 8, !tbaa !77
  %64 = sext i32 %60 to i64
  %65 = getelementptr inbounds i8, ptr %63, i64 %64
  store ptr %65, ptr %62, align 8, !tbaa !77
  br label %66

66:                                               ; preds = %56
  %67 = load i32, ptr %6, align 4, !tbaa !61
  %68 = add nsw i32 %67, 2
  store i32 %68, ptr %6, align 4, !tbaa !61
  br label %7, !llvm.loop !130

69:                                               ; preds = %7
  call void @llvm.lifetime.end.p0(i64 4, ptr %6) #11
  call void @llvm.lifetime.end.p0(i64 4, ptr %5) #11
  ret i32 0
}