; Function Attrs: nofree norecurse nosync nounwind memory(readwrite, inaccessiblemem: none) uwtable
define internal noundef i32 @ipvideo_decode_block_opcode_0xC(ptr noundef captures(none) %0, ptr readnone captures(none) %1) #6 {
  %3 = getelementptr inbounds nuw i8, ptr %0, i64 488
  %4 = getelementptr inbounds nuw i8, ptr %0, i64 496
  %5 = getelementptr inbounds nuw i8, ptr %0, i64 536
  %6 = getelementptr inbounds nuw i8, ptr %0, i64 548
  br label %.preheader

.preheader:                                       ; preds = %2, %36
  %.018 = phi i32 [ 0, %2 ], [ %42, %36 ]
  br label %7

7:                                                ; preds = %.preheader, %bytestream2_get_byte.exit
  %indvars.iv = phi i64 [ 0, %.preheader ], [ %indvars.iv.next, %bytestream2_get_byte.exit ]
  %8 = load ptr, ptr %4, align 8, !tbaa !60
  %9 = load ptr, ptr %3, align 8, !tbaa !58
  %10 = ptrtoint ptr %8 to i64
  %11 = ptrtoint ptr %9 to i64
  %12 = sub i64 %10, %11
  %13 = icmp slt i64 %12, 1
  br i1 %13, label %14, label %15

14:                                               ; preds = %7
  store ptr %8, ptr %3, align 8, !tbaa !58
  br label %bytestream2_get_byte.exit

15:                                               ; preds = %7
  %16 = getelementptr inbounds nuw i8, ptr %9, i64 1
  store ptr %16, ptr %3, align 8, !tbaa !53
  %17 = load i8, ptr %9, align 1, !tbaa !54
  br label %bytestream2_get_byte.exit

bytestream2_get_byte.exit:                        ; preds = %14, %15
  %.0.i = phi i8 [ 0, %14 ], [ %17, %15 ]
  %18 = load ptr, ptr %5, align 8, !tbaa !67
  %19 = or disjoint i64 %indvars.iv, 1
  %20 = load i32, ptr %6, align 4, !tbaa !63
  %21 = trunc nuw nsw i64 %19 to i32
  %22 = add nsw i32 %20, %21
  %23 = sext i32 %22 to i64
  %24 = getelementptr inbounds i8, ptr %18, i64 %23
  store i8 %.0.i, ptr %24, align 1, !tbaa !54
  %25 = load ptr, ptr %5, align 8, !tbaa !67
  %26 = load i32, ptr %6, align 4, !tbaa !63
  %27 = trunc nuw nsw i64 %indvars.iv to i32
  %28 = add nsw i32 %26, %27
  %29 = sext i32 %28 to i64
  %30 = getelementptr inbounds i8, ptr %25, i64 %29
  store i8 %.0.i, ptr %30, align 1, !tbaa !54
  %31 = load ptr, ptr %5, align 8, !tbaa !67
  %32 = getelementptr inbounds nuw i8, ptr %31, i64 %19
  store i8 %.0.i, ptr %32, align 1, !tbaa !54
  %33 = load ptr, ptr %5, align 8, !tbaa !67
  %34 = getelementptr inbounds nuw i8, ptr %33, i64 %indvars.iv
  store i8 %.0.i, ptr %34, align 1, !tbaa !54
  %indvars.iv.next = add nuw nsw i64 %indvars.iv, 2
  %35 = icmp samesign ult i64 %indvars.iv, 6
  br i1 %35, label %7, label %36, !llvm.loop !110

36:                                               ; preds = %bytestream2_get_byte.exit
  %37 = load i32, ptr %6, align 4, !tbaa !63
  %38 = shl nsw i32 %37, 1
  %39 = load ptr, ptr %5, align 8, !tbaa !67
  %40 = sext i32 %38 to i64
  %41 = getelementptr inbounds i8, ptr %39, i64 %40
  store ptr %41, ptr %5, align 8, !tbaa !67
  %42 = add nuw nsw i32 %.018, 2
  %43 = icmp samesign ult i32 %.018, 6
  br i1 %43, label %.preheader, label %44, !llvm.loop !111

44:                                               ; preds = %36
  ret i32 0
}